#include <math.h>
#include <stdio.h>
#include <stdlib.h>
#include <string.h>

int main()
{
	int i,n,m,k;
	float s,a,b;
	scanf("%d",&m);
	for(i=1;i<=m;i++)
	{
		scanf("%d",&n);
		a=1;
		b=1;
		s=0;
		for(k=1;k<=n;k++)
		{
			a=a+b;
			b=a-b;
			s=s+a/b;
		}
		printf("%.3lf\n",s);
	}
	
	return 0;
}