; ModuleID = '29/1703.c'
source_filename = "29/1703.c"
target datalayout = "e-m:e-p270:32:32-p271:32:32-p272:64:64-i64:64-f80:128-n8:16:32:64-S128"
target triple = "x86_64-pc-linux-gnu"

@.str = private unnamed_addr constant [3 x i8] c"%d\00", align 1
@.str.1 = private unnamed_addr constant [7 x i8] c"%.3lf\0A\00", align 1

; Function Attrs: noinline nounwind uwtable
define dso_local i32 @main() #0 {
  %1 = alloca i32, align 4
  %2 = alloca i32, align 4
  %3 = alloca i32, align 4
  %4 = alloca i32, align 4
  %5 = alloca i32, align 4
  %6 = alloca float, align 4
  %7 = alloca float, align 4
  %8 = alloca float, align 4
  store i32 0, i32* %1, align 4
  %9 = call i32 (i8*, ...) @__isoc99_scanf(i8* getelementptr inbounds ([3 x i8], [3 x i8]* @.str, i64 0, i64 0), i32* %4)
  store i32 1, i32* %2, align 4
  br label %10

10:                                               ; preds = %39, %0
  %11 = load i32, i32* %2, align 4
  %12 = load i32, i32* %4, align 4
  %13 = icmp sle i32 %11, %12
  br i1 %13, label %14, label %42

14:                                               ; preds = %10
  %15 = call i32 (i8*, ...) @__isoc99_scanf(i8* getelementptr inbounds ([3 x i8], [3 x i8]* @.str, i64 0, i64 0), i32* %3)
  store float 1.000000e+00, float* %7, align 4
  store float 1.000000e+00, float* %8, align 4
  store float 0.000000e+00, float* %6, align 4
  store i32 1, i32* %5, align 4
  br label %16

16:                                               ; preds = %32, %14
  %17 = load i32, i32* %5, align 4
  %18 = load i32, i32* %3, align 4
  %19 = icmp sle i32 %17, %18
  br i1 %19, label %20, label %35

20:                                               ; preds = %16
  %21 = load float, float* %7, align 4
  %22 = load float, float* %8, align 4
  %23 = fadd float %21, %22
  store float %23, float* %7, align 4
  %24 = load float, float* %7, align 4
  %25 = load float, float* %8, align 4
  %26 = fsub float %24, %25
  store float %26, float* %8, align 4
  %27 = load float, float* %6, align 4
  %28 = load float, float* %7, align 4
  %29 = load float, float* %8, align 4
  %30 = fdiv float %28, %29
  %31 = fadd float %27, %30
  store float %31, float* %6, align 4
  br label %32

32:                                               ; preds = %20
  %33 = load i32, i32* %5, align 4
  %34 = add nsw i32 %33, 1
  store i32 %34, i32* %5, align 4
  br label %16

35:                                               ; preds = %16
  %36 = load float, float* %6, align 4
  %37 = fpext float %36 to double
  %38 = call i32 (i8*, ...) @printf(i8* getelementptr inbounds ([7 x i8], [7 x i8]* @.str.1, i64 0, i64 0), double %37)
  br label %39

39:                                               ; preds = %35
  %40 = load i32, i32* %2, align 4
  %41 = add nsw i32 %40, 1
  store i32 %41, i32* %2, align 4
  br label %10

42:                                               ; preds = %10
  ret i32 0
}

declare dso_local i32 @__isoc99_scanf(i8*, ...) #1

declare dso_local i32 @printf(i8*, ...) #1


!llvm.module.flags = !{!0}
!llvm.ident = !{!1}

!0 = !{i32 1, !"wchar_size", i32 4}
!1 = !{!"clang version 10.0.0-4ubuntu1 "}
