; ModuleID = 'source-C-CXX/28/1703.c'
source_filename = "source-C-CXX/28/1703.c"
target datalayout = "e-m:e-p270:32:32-p271:32:32-p272:64:64-i64:64-f80:128-n8:16:32:64-S128"
target triple = "x86_64-pc-linux-gnu"

@.str = private unnamed_addr constant [3 x i8] c"%d\00", align 1
@.str.1 = private unnamed_addr constant [7 x i8] c"%.3lf\0A\00", align 1

; Function Attrs: nofree nounwind sspstrong uwtable
define dso_local i32 @main() local_unnamed_addr #0 {
  %1 = alloca i32, align 4
  %2 = alloca i32, align 4
  %3 = bitcast i32* %1 to i8*
  call void @llvm.lifetime.start.p0i8(i64 4, i8* nonnull %3) #3
  %4 = bitcast i32* %2 to i8*
  call void @llvm.lifetime.start.p0i8(i64 4, i8* nonnull %4) #3
  %5 = call i32 (i8*, ...) @__isoc99_scanf(i8* getelementptr inbounds ([3 x i8], [3 x i8]* @.str, i64 0, i64 0), i32* nonnull %2)
  %6 = load i32, i32* %2, align 4, !tbaa !5
  %7 = icmp slt i32 %6, 1
  br i1 %7, label %51, label %8

8:                                                ; preds = %0, %44
  %9 = phi i32 [ %48, %44 ], [ 1, %0 ]
  %10 = call i32 (i8*, ...) @__isoc99_scanf(i8* getelementptr inbounds ([3 x i8], [3 x i8]* @.str, i64 0, i64 0), i32* nonnull %1)
  %11 = load i32, i32* %1, align 4, !tbaa !5
  %12 = icmp slt i32 %11, 1
  br i1 %12, label %44, label %13

13:                                               ; preds = %8
  %14 = and i32 %11, 1
  %15 = icmp eq i32 %11, 1
  br i1 %15, label %33, label %16

16:                                               ; preds = %13
  %17 = and i32 %11, -2
  br label %18

18:                                               ; preds = %18, %16
  %19 = phi float [ 1.000000e+00, %16 ], [ %28, %18 ]
  %20 = phi float [ 1.000000e+00, %16 ], [ %27, %18 ]
  %21 = phi float [ 0.000000e+00, %16 ], [ %30, %18 ]
  %22 = phi i32 [ %17, %16 ], [ %31, %18 ]
  %23 = fadd float %20, %19
  %24 = fsub float %23, %19
  %25 = fdiv float %23, %24
  %26 = fadd float %21, %25
  %27 = fadd float %23, %24
  %28 = fsub float %27, %24
  %29 = fdiv float %27, %28
  %30 = fadd float %26, %29
  %31 = add i32 %22, -2
  %32 = icmp eq i32 %31, 0
  br i1 %32, label %33, label %18, !llvm.loop !9

33:                                               ; preds = %18, %13
  %34 = phi float [ undef, %13 ], [ %30, %18 ]
  %35 = phi float [ 1.000000e+00, %13 ], [ %28, %18 ]
  %36 = phi float [ 1.000000e+00, %13 ], [ %27, %18 ]
  %37 = phi float [ 0.000000e+00, %13 ], [ %30, %18 ]
  %38 = icmp eq i32 %14, 0
  br i1 %38, label %44, label %39

39:                                               ; preds = %33
  %40 = fadd float %36, %35
  %41 = fsub float %40, %35
  %42 = fdiv float %40, %41
  %43 = fadd float %37, %42
  br label %44

44:                                               ; preds = %39, %33, %8
  %45 = phi float [ 0.000000e+00, %8 ], [ %34, %33 ], [ %43, %39 ]
  %46 = fpext float %45 to double
  %47 = call i32 (i8*, ...) @printf(i8* nonnull dereferenceable(1) getelementptr inbounds ([7 x i8], [7 x i8]* @.str.1, i64 0, i64 0), double %46)
  %48 = add nuw nsw i32 %9, 1
  %49 = load i32, i32* %2, align 4, !tbaa !5
  %50 = icmp slt i32 %9, %49
  br i1 %50, label %8, label %51, !llvm.loop !11

51:                                               ; preds = %44, %0
  call void @llvm.lifetime.end.p0i8(i64 4, i8* nonnull %4) #3
  call void @llvm.lifetime.end.p0i8(i64 4, i8* nonnull %3) #3
  ret i32 0
}

; Function Attrs: argmemonly mustprogress nofree nosync nounwind willreturn
declare void @llvm.lifetime.start.p0i8(i64 immarg, i8* nocapture) #1

; Function Attrs: nofree nounwind
declare noundef i32 @__isoc99_scanf(i8* nocapture noundef readonly, ...) local_unnamed_addr #2

; Function Attrs: nofree nounwind
declare noundef i32 @printf(i8* nocapture noundef readonly, ...) local_unnamed_addr #2

; Function Attrs: argmemonly mustprogress nofree nosync nounwind willreturn
declare void @llvm.lifetime.end.p0i8(i64 immarg, i8* nocapture) #1


!llvm.module.flags = !{!0, !1, !2, !3}
!llvm.ident = !{!4}

!0 = !{i32 1, !"wchar_size", i32 4}
!1 = !{i32 7, !"PIC Level", i32 2}
!2 = !{i32 7, !"PIE Level", i32 2}
!3 = !{i32 7, !"uwtable", i32 1}
!4 = !{!"clang version 13.0.0"}
!5 = !{!6, !6, i64 0}
!6 = !{!"int", !7, i64 0}
!7 = !{!"omnipotent char", !8, i64 0}
!8 = !{!"Simple C/C++ TBAA"}
!9 = distinct !{!9, !10}
!10 = !{!"llvm.loop.mustprogress"}
!11 = distinct !{!11, !10}
